target datalayout = "e-m:e-p270:32:32-p271:32:32-p272:64:64-i64:64-i128:128-f80:128-n8:16:32:64-S128"
target triple = "x86_64-pc-linux-gnu"

%struct.FT_ListRec_ = type { ptr, ptr }
%struct.FT_FaceRec_ = type { i64, i64, i64, i64, i64, ptr, ptr, i32, ptr, i32, ptr, %struct.FT_Generic_, %struct.FT_BBox_, i16, i16, i16, i16, i16, i16, i16, i16, ptr, ptr, ptr, ptr, ptr, ptr, %struct.FT_ListRec_, %struct.FT_Generic_, ptr, ptr }
%struct.FT_BBox_ = type { i64, i64, i64, i64 }
%struct.FT_Generic_ = type { ptr, ptr }
%struct.TT_FaceRec_ = type { %struct.FT_FaceRec_, %struct.TTC_HeaderRec_, i64, i16, ptr, %struct.TT_Header_, %struct.TT_HoriHeader_, %struct.TT_MaxProfile_, i8, %struct.TT_VertHeader_, i16, %struct.TT_NameTableRec_, %struct.TT_OS2_, %struct.TT_Postscript_, ptr, i64, ptr, ptr, ptr, ptr, ptr, ptr, ptr, ptr, ptr, ptr, ptr, ptr, %struct.TT_Gasp_, %struct.TT_PCLT_, i64, ptr, %struct.TT_Post_NamesRec_, %struct.FT_Palette_Data_, i16, ptr, i8, %struct.FT_Color_, i64, ptr, i64, ptr, i64, ptr, ptr, %struct.FT_Generic_, ptr, i64, i64, i8, i8, ptr, i32, ptr, i32, i32, ptr, i64, i64, i64, ptr, ptr, i64, i32, i64, ptr, ptr, i64, i32, i32, ptr, ptr, i64, i32, i32, i32, %struct.TT_BDFRec_, i64, i64, i64, i64, ptr, ptr, ptr }
%struct.TTC_HeaderRec_ = type { i64, i64, i64, ptr }
%struct.TT_Header_ = type { i64, i64, i64, i64, i16, i16, [2 x i64], [2 x i64], i16, i16, i16, i16, i16, i16, i16, i16, i16 }
%struct.TT_HoriHeader_ = type { i64, i16, i16, i16, i16, i16, i16, i16, i16, i16, i16, [4 x i16], i16, i16, ptr, ptr }
%struct.TT_MaxProfile_ = type { i64, i16, i16, i16, i16, i16, i16, i16, i16, i16, i16, i16, i16, i16, i16 }
%struct.TT_VertHeader_ = type { i64, i16, i16, i16, i16, i16, i16, i16, i16, i16, i16, [4 x i16], i16, i16, ptr, ptr }
%struct.TT_NameTableRec_ = type { i16, i32, i32, ptr, i32, ptr, ptr }
%struct.TT_OS2_ = type { i16, i16, i16, i16, i16, i16, i16, i16, i16, i16, i16, i16, i16, i16, i16, i16, [10 x i8], i64, i64, i64, i64, [4 x i8], i16, i16, i16, i16, i16, i16, i16, i16, i64, i64, i16, i16, i16, i16, i16, i16, i16 }
%struct.TT_Postscript_ = type { i64, i64, i16, i16, i64, i64, i64, i64, i64 }
%struct.TT_Gasp_ = type { i16, i16, ptr }
%struct.TT_PCLT_ = type { i64, i64, i16, i16, i16, i16, i16, i16, [16 x i8], [8 x i8], [6 x i8], i8, i8, i8, i8 }
%struct.TT_Post_NamesRec_ = type { i8, i16, i16, ptr, ptr }
%struct.FT_Palette_Data_ = type { i16, ptr, ptr, i16, ptr }
%struct.FT_Color_ = type { i8, i8, i8, i8 }
%struct.TT_BDFRec_ = type { ptr, ptr, ptr, i64, i32, i8 }
%struct.GX_BlendRec_ = type { i32, ptr, ptr, ptr, i64, ptr, i8, ptr, i8, i8, i32, ptr, i8, i8, i32, ptr, ptr, i32, ptr, i32, ptr, i64 }
%struct.FT_MM_Var_ = type { i32, i32, i32, ptr, ptr }
%struct.FT_Var_Named_Style_ = type { ptr, i32, i32 }
%struct.FT_Var_Axis_ = type { ptr, i64, i64, i64, i64, i32 }

; Function Attrs: nounwind uwtable
define internal i32 @TT_Set_Var_Design(ptr noundef %0, i32 noundef %1, ptr noundef %2) #0 {
  %4 = alloca i32, align 4
  %5 = alloca ptr, align 8
  %6 = alloca i32, align 4
  %7 = alloca ptr, align 8
  %8 = alloca ptr, align 8
  %9 = alloca i32, align 4
  %10 = alloca ptr, align 8
  %11 = alloca ptr, align 8
  %12 = alloca i32, align 4
  %13 = alloca ptr, align 8
  %14 = alloca ptr, align 8
  %15 = alloca ptr, align 8
  %16 = alloca ptr, align 8
  %17 = alloca i8, align 1
  %18 = alloca i32, align 4
  %19 = alloca ptr, align 8
  %20 = alloca ptr, align 8
  store ptr %0, ptr %5, align 8
  store i32 %1, ptr %6, align 4
  store ptr %2, ptr %7, align 8
  %21 = load ptr, ptr %5, align 8
  store ptr %21, ptr %8, align 8
  store i32 0, ptr %9, align 4
  %22 = load ptr, ptr %5, align 8
  %23 = getelementptr inbounds %struct.FT_FaceRec_, ptr %22, i32 0, i32 25
  %24 = load ptr, ptr %23, align 8
  store ptr %24, ptr %13, align 8
  store ptr null, ptr %16, align 8
  store i8 0, ptr %17, align 1
  %25 = load ptr, ptr %8, align 8
  %26 = getelementptr inbounds %struct.TT_FaceRec_, ptr %25, i32 0, i32 51
  %27 = load ptr, ptr %26, align 8
  %28 = icmp ne ptr %27, null
  br i1 %28, label %35, label %29

29:                                               ; preds = %3
  %30 = load ptr, ptr %5, align 8
  %31 = call i32 @TT_Get_MM_Var(ptr noundef %30, ptr noundef null)
  store i32 %31, ptr %9, align 4
  %32 = icmp ne i32 %31, 0
  br i1 %32, label %33, label %34

33:                                               ; preds = %29
  br label %231

34:                                               ; preds = %29
  br label %35

35:                                               ; preds = %34, %3
  %36 = load ptr, ptr %8, align 8
  %37 = getelementptr inbounds %struct.TT_FaceRec_, ptr %36, i32 0, i32 51
  %38 = load ptr, ptr %37, align 8
  store ptr %38, ptr %10, align 8
  %39 = load ptr, ptr %10, align 8
  %40 = getelementptr inbounds %struct.GX_BlendRec_, ptr %39, i32 0, i32 3
  %41 = load ptr, ptr %40, align 8
  store ptr %41, ptr %11, align 8
  %42 = load i32, ptr %6, align 4
  %43 = load ptr, ptr %11, align 8
  %44 = getelementptr inbounds %struct.FT_MM_Var_, ptr %43, i32 0, i32 0
  %45 = load i32, ptr %44, align 8
  %46 = icmp ugt i32 %42, %45
  br i1 %46, label %47, label %53

47:                                               ; preds = %35
  br label %48

48:                                               ; preds = %47
  br label %49

49:                                               ; preds = %48
  %50 = load ptr, ptr %11, align 8
  %51 = getelementptr inbounds %struct.FT_MM_Var_, ptr %50, i32 0, i32 0
  %52 = load i32, ptr %51, align 8
  store i32 %52, ptr %6, align 4
  br label %53

53:                                               ; preds = %49, %35
  %54 = load ptr, ptr %10, align 8
  %55 = getelementptr inbounds %struct.GX_BlendRec_, ptr %54, i32 0, i32 1
  %56 = load ptr, ptr %55, align 8
  %57 = icmp ne ptr %56, null
  br i1 %57, label %71, label %58

58:                                               ; preds = %53
  %59 = load ptr, ptr %13, align 8
  %60 = load ptr, ptr %11, align 8
  %61 = getelementptr inbounds %struct.FT_MM_Var_, ptr %60, i32 0, i32 0
  %62 = load i32, ptr %61, align 8
  %63 = zext i32 %62 to i64
  %64 = call ptr @ft_mem_realloc(ptr noundef %59, i64 noundef 8, i64 noundef 0, i64 noundef %63, ptr noundef null, ptr noundef %9)
  %65 = load ptr, ptr %10, align 8
  %66 = getelementptr inbounds %struct.GX_BlendRec_, ptr %65, i32 0, i32 1
  store ptr %64, ptr %66, align 8
  %67 = load i32, ptr %9, align 4
  %68 = icmp ne i32 %67, 0
  br i1 %68, label %69, label %70

69:                                               ; preds = %58
  br label %231

70:                                               ; preds = %58
  br label %71

71:                                               ; preds = %70, %53
  %72 = load ptr, ptr %10, align 8
  %73 = getelementptr inbounds %struct.GX_BlendRec_, ptr %72, i32 0, i32 1
  %74 = load ptr, ptr %73, align 8
  store ptr %74, ptr %14, align 8
  %75 = load ptr, ptr %7, align 8
  store ptr %75, ptr %15, align 8
  store i32 0, ptr %12, align 4
  br label %76

76:                                               ; preds = %91, %71
  %77 = load i32, ptr %12, align 4
  %78 = load i32, ptr %6, align 4
  %79 = icmp ult i32 %77, %78
  br i1 %79, label %80, label %98

80:                                               ; preds = %76
  %81 = load ptr, ptr %14, align 8
  %82 = load i64, ptr %81, align 8
  %83 = load ptr, ptr %15, align 8
  %84 = load i64, ptr %83, align 8
  %85 = icmp ne i64 %82, %84
  br i1 %85, label %86, label %90

86:                                               ; preds = %80
  %87 = load ptr, ptr %15, align 8
  %88 = load i64, ptr %87, align 8
  %89 = load ptr, ptr %14, align 8
  store i64 %88, ptr %89, align 8
  store i8 1, ptr %17, align 1
  br label %90

90:                                               ; preds = %86, %80
  br label %91

91:                                               ; preds = %90
  %92 = load i32, ptr %12, align 4
  %93 = add i32 %92, 1
  store i32 %93, ptr %12, align 4
  %94 = load ptr, ptr %15, align 8
  %95 = getelementptr inbounds i64, ptr %94, i32 1
  store ptr %95, ptr %15, align 8
  %96 = load ptr, ptr %14, align 8
  %97 = getelementptr inbounds i64, ptr %96, i32 1
  store ptr %97, ptr %14, align 8
  br label %76, !llvm.loop !50

98:                                               ; preds = %76
  %99 = load ptr, ptr %5, align 8
  %100 = getelementptr inbounds %struct.FT_FaceRec_, ptr %99, i32 0, i32 1
  %101 = load i64, ptr %100, align 8
  %102 = and i64 %101, 2147418112
  %103 = icmp ne i64 %102, 0
  br i1 %103, label %104, label %148

104:                                              ; preds = %98
  %105 = load ptr, ptr %5, align 8
  %106 = getelementptr inbounds %struct.FT_FaceRec_, ptr %105, i32 0, i32 1
  %107 = load i64, ptr %106, align 8
  %108 = trunc i64 %107 to i32
  %109 = lshr i32 %108, 16
  store i32 %109, ptr %18, align 4
  %110 = load ptr, ptr %11, align 8
  %111 = getelementptr inbounds %struct.FT_MM_Var_, ptr %110, i32 0, i32 4
  %112 = load ptr, ptr %111, align 8
  %113 = load i32, ptr %18, align 4
  %114 = zext i32 %113 to i64
  %115 = getelementptr inbounds %struct.FT_Var_Named_Style_, ptr %112, i64 %114
  %116 = getelementptr inbounds %struct.FT_Var_Named_Style_, ptr %115, i64 -1
  store ptr %116, ptr %19, align 8
  %117 = load ptr, ptr %19, align 8
  %118 = getelementptr inbounds %struct.FT_Var_Named_Style_, ptr %117, i32 0, i32 0
  %119 = load ptr, ptr %118, align 8
  %120 = load i32, ptr %6, align 4
  %121 = zext i32 %120 to i64
  %122 = getelementptr inbounds i64, ptr %119, i64 %121
  store ptr %122, ptr %15, align 8
  br label %123

123:                                              ; preds = %140, %104
  %124 = load i32, ptr %12, align 4
  %125 = load ptr, ptr %11, align 8
  %126 = getelementptr inbounds %struct.FT_MM_Var_, ptr %125, i32 0, i32 0
  %127 = load i32, ptr %126, align 8
  %128 = icmp ult i32 %124, %127
  br i1 %128, label %129, label %147

129:                                              ; preds = %123
  %130 = load ptr, ptr %14, align 8
  %131 = load i64, ptr %130, align 8
  %132 = load ptr, ptr %15, align 8
  %133 = load i64, ptr %132, align 8
  %134 = icmp ne i64 %131, %133
  br i1 %134, label %135, label %139

135:                                              ; preds = %129
  %136 = load ptr, ptr %15, align 8
  %137 = load i64, ptr %136, align 8
  %138 = load ptr, ptr %14, align 8
  store i64 %137, ptr %138, align 8
  store i8 1, ptr %17, align 1
  br label %139

139:                                              ; preds = %135, %129
  br label %140

140:                                              ; preds = %139
  %141 = load i32, ptr %12, align 4
  %142 = add i32 %141, 1
  store i32 %142, ptr %12, align 4
  %143 = load ptr, ptr %15, align 8
  %144 = getelementptr inbounds i64, ptr %143, i32 1
  store ptr %144, ptr %15, align 8
  %145 = load ptr, ptr %14, align 8
  %146 = getelementptr inbounds i64, ptr %145, i32 1
  store ptr %146, ptr %14, align 8
  br label %123, !llvm.loop !51

147:                                              ; preds = %123
  br label %182

148:                                              ; preds = %98
  %149 = load ptr, ptr %11, align 8
  %150 = getelementptr inbounds %struct.FT_MM_Var_, ptr %149, i32 0, i32 3
  %151 = load ptr, ptr %150, align 8
  %152 = load i32, ptr %6, align 4
  %153 = zext i32 %152 to i64
  %154 = getelementptr inbounds %struct.FT_Var_Axis_, ptr %151, i64 %153
  store ptr %154, ptr %20, align 8
  br label %155

155:                                              ; preds = %174, %148
  %156 = load i32, ptr %12, align 4
  %157 = load ptr, ptr %11, align 8
  %158 = getelementptr inbounds %struct.FT_MM_Var_, ptr %157, i32 0, i32 0
  %159 = load i32, ptr %158, align 8
  %160 = icmp ult i32 %156, %159
  br i1 %160, label %161, label %181

161:                                              ; preds = %155
  %162 = load ptr, ptr %14, align 8
  %163 = load i64, ptr %162, align 8
  %164 = load ptr, ptr %20, align 8
  %165 = getelementptr inbounds %struct.FT_Var_Axis_, ptr %164, i32 0, i32 2
  %166 = load i64, ptr %165, align 8
  %167 = icmp ne i64 %163, %166
  br i1 %167, label %168, label %173

168:                                              ; preds = %161
  %169 = load ptr, ptr %20, align 8
  %170 = getelementptr inbounds %struct.FT_Var_Axis_, ptr %169, i32 0, i32 2
  %171 = load i64, ptr %170, align 8
  %172 = load ptr, ptr %14, align 8
  store i64 %171, ptr %172, align 8
  store i8 1, ptr %17, align 1
  br label %173

173:                                              ; preds = %168, %161
  br label %174

174:                                              ; preds = %173
  %175 = load i32, ptr %12, align 4
  %176 = add i32 %175, 1
  store i32 %176, ptr %12, align 4
  %177 = load ptr, ptr %20, align 8
  %178 = getelementptr inbounds %struct.FT_Var_Axis_, ptr %177, i32 1
  store ptr %178, ptr %20, align 8
  %179 = load ptr, ptr %14, align 8
  %180 = getelementptr inbounds i64, ptr %179, i32 1
  store ptr %180, ptr %14, align 8
  br label %155, !llvm.loop !52

181:                                              ; preds = %155
  br label %182

182:                                              ; preds = %181, %147
  %183 = load ptr, ptr %10, align 8
  %184 = getelementptr inbounds %struct.GX_BlendRec_, ptr %183, i32 0, i32 2
  %185 = load ptr, ptr %184, align 8
  %186 = icmp ne ptr %185, null
  br i1 %186, label %187, label %191

187:                                              ; preds = %182
  %188 = load i8, ptr %17, align 1
  %189 = icmp ne i8 %188, 0
  br i1 %189, label %191, label %190

190:                                              ; preds = %187
  store i32 -1, ptr %4, align 4
  br label %237

191:                                              ; preds = %187, %182
  %192 = load ptr, ptr %13, align 8
  %193 = load ptr, ptr %11, align 8
  %194 = getelementptr inbounds %struct.FT_MM_Var_, ptr %193, i32 0, i32 0
  %195 = load i32, ptr %194, align 8
  %196 = zext i32 %195 to i64
  %197 = call ptr @ft_mem_realloc(ptr noundef %192, i64 noundef 8, i64 noundef 0, i64 noundef %196, ptr noundef null, ptr noundef %9)
  store ptr %197, ptr %16, align 8
  %198 = load i32, ptr %9, align 4
  %199 = icmp ne i32 %198, 0
  br i1 %199, label %200, label %201

200:                                              ; preds = %191
  br label %231

201:                                              ; preds = %191
  %202 = load ptr, ptr %8, align 8
  %203 = getelementptr inbounds %struct.TT_FaceRec_, ptr %202, i32 0, i32 51
  %204 = load ptr, ptr %203, align 8
  %205 = getelementptr inbounds %struct.GX_BlendRec_, ptr %204, i32 0, i32 6
  %206 = load i8, ptr %205, align 8
  %207 = icmp ne i8 %206, 0
  br i1 %207, label %210, label %208

208:                                              ; preds = %201
  %209 = load ptr, ptr %8, align 8
  call void @ft_var_load_avar(ptr noundef %209)
  br label %210

210:                                              ; preds = %208, %201
  br label %211

211:                                              ; preds = %210
  br label %212

212:                                              ; preds = %211
  br label %213

213:                                              ; preds = %212
  br label %214

214:                                              ; preds = %213
  %215 = load ptr, ptr %8, align 8
  %216 = load i32, ptr %6, align 4
  %217 = load ptr, ptr %10, align 8
  %218 = getelementptr inbounds %struct.GX_BlendRec_, ptr %217, i32 0, i32 1
  %219 = load ptr, ptr %218, align 8
  %220 = load ptr, ptr %16, align 8
  call void @ft_var_to_normalized(ptr noundef %215, i32 noundef %216, ptr noundef %219, ptr noundef %220)
  %221 = load ptr, ptr %8, align 8
  %222 = load ptr, ptr %11, align 8
  %223 = getelementptr inbounds %struct.FT_MM_Var_, ptr %222, i32 0, i32 0
  %224 = load i32, ptr %223, align 8
  %225 = load ptr, ptr %16, align 8
  %226 = call i32 @tt_set_mm_blend(ptr noundef %221, i32 noundef %224, ptr noundef %225, i8 noundef zeroext 0)
  store i32 %226, ptr %9, align 4
  %227 = load i32, ptr %9, align 4
  %228 = icmp ne i32 %227, 0
  br i1 %228, label %229, label %230

229:                                              ; preds = %214
  br label %231

230:                                              ; preds = %214
  br label %231

231:                                              ; preds = %230, %229, %200, %69, %33
  br label %232

232:                                              ; preds = %231
  %233 = load ptr, ptr %13, align 8
  %234 = load ptr, ptr %16, align 8
  call void @ft_mem_free(ptr noundef %233, ptr noundef %234)
  store ptr null, ptr %16, align 8
  br label %235

235:                                              ; preds = %232
  %236 = load i32, ptr %9, align 4
  store i32 %236, ptr %4, align 4
  br label %237

237:                                              ; preds = %235, %190
  %238 = load i32, ptr %4, align 4
  ret i32 %238
}