; Function Attrs: nounwind uwtable
define internal i32 @TT_Set_Var_Design(ptr noundef %0, i32 noundef %1, ptr nocapture noundef readonly %2) #2 {
  %4 = alloca i32, align 4
  store i32 0, ptr %4, align 4
  %5 = getelementptr inbounds i8, ptr %0, i64 184
  %6 = load ptr, ptr %5, align 8
  %7 = getelementptr inbounds i8, ptr %0, i64 1216
  %8 = load ptr, ptr %7, align 8
  %.not = icmp eq ptr %8, null
  br i1 %.not, label %9, label %11

9:                                                ; preds = %3
  %10 = tail call i32 @TT_Get_MM_Var(ptr noundef nonnull %0, ptr noundef null)
  store i32 %10, ptr %4, align 4
  %.not83 = icmp eq i32 %10, 0
  br i1 %.not83, label %._crit_edge116, label %90

._crit_edge116:                                   ; preds = %9
  %.pre = load ptr, ptr %7, align 8
  br label %11

11:                                               ; preds = %._crit_edge116, %3
  %12 = phi ptr [ %.pre, %._crit_edge116 ], [ %8, %3 ]
  %13 = getelementptr inbounds i8, ptr %12, i64 24
  %14 = load ptr, ptr %13, align 8
  %15 = load i32, ptr %14, align 8
  %spec.select = tail call i32 @llvm.umin.i32(i32 %15, i32 %1)
  %16 = getelementptr inbounds i8, ptr %12, i64 8
  %17 = load ptr, ptr %16, align 8
  %.not84 = icmp eq ptr %17, null
  br i1 %.not84, label %18, label %22

18:                                               ; preds = %11
  %19 = zext i32 %15 to i64
  %20 = call ptr @ft_mem_realloc(ptr noundef %6, i64 noundef 8, i64 noundef 0, i64 noundef %19, ptr noundef null, ptr noundef nonnull %4) #22
  store ptr %20, ptr %16, align 8
  %21 = load i32, ptr %4, align 4
  %.not85 = icmp eq i32 %21, 0
  br i1 %.not85, label %22, label %90

22:                                               ; preds = %18, %11
  %23 = phi ptr [ %20, %18 ], [ %17, %11 ]
  %.not113 = icmp eq i32 %spec.select, 0
  br i1 %.not113, label %._crit_edge, label %.lr.ph

.lr.ph:                                           ; preds = %22, %27
  %.06896 = phi i8 [ %.1, %27 ], [ 0, %22 ]
  %.07095 = phi ptr [ %29, %27 ], [ %2, %22 ]
  %.07294 = phi ptr [ %30, %27 ], [ %23, %22 ]
  %.07593 = phi i32 [ %28, %27 ], [ 0, %22 ]
  %24 = load i64, ptr %.07294, align 8
  %25 = load i64, ptr %.07095, align 8
  %.not91 = icmp eq i64 %24, %25
  br i1 %.not91, label %27, label %26

26:                                               ; preds = %.lr.ph
  store i64 %25, ptr %.07294, align 8
  br label %27

27:                                               ; preds = %.lr.ph, %26
  %.1 = phi i8 [ 1, %26 ], [ %.06896, %.lr.ph ]
  %28 = add nuw i32 %.07593, 1
  %29 = getelementptr inbounds i8, ptr %.07095, i64 8
  %30 = getelementptr inbounds i8, ptr %.07294, i64 8
  %exitcond.not = icmp eq i32 %28, %spec.select
  br i1 %exitcond.not, label %._crit_edge, label %.lr.ph, !llvm.loop !53

._crit_edge:                                      ; preds = %27, %22
  %.072.lcssa = phi ptr [ %23, %22 ], [ %30, %27 ]
  %.068.lcssa = phi i8 [ 0, %22 ], [ %.1, %27 ]
  %31 = getelementptr inbounds i8, ptr %0, i64 8
  %32 = load i64, ptr %31, align 8
  %33 = and i64 %32, 2147418112
  %.not86 = icmp eq i64 %33, 0
  %34 = load i32, ptr %14, align 8
  %35 = icmp ult i32 %spec.select, %34
  br i1 %.not86, label %56, label %36

36:                                               ; preds = %._crit_edge
  br i1 %35, label %.lr.ph104.preheader, label %.loopexit

.lr.ph104.preheader:                              ; preds = %36
  %37 = getelementptr inbounds i8, ptr %14, i64 24
  %38 = load ptr, ptr %37, align 8
  %39 = lshr i64 %32, 16
  %40 = and i64 %39, 65535
  %41 = getelementptr inbounds %struct.FT_Var_Named_Style_, ptr %38, i64 %40
  %42 = getelementptr inbounds i8, ptr %41, i64 -16
  %43 = load ptr, ptr %42, align 8
  %44 = zext i32 %spec.select to i64
  %45 = getelementptr inbounds i64, ptr %43, i64 %44
  br label %.lr.ph104

.lr.ph104:                                        ; preds = %.lr.ph104.preheader, %50
  %46 = phi i32 [ %51, %50 ], [ %34, %.lr.ph104.preheader ]
  %.2102 = phi i8 [ %.3, %50 ], [ %.068.lcssa, %.lr.ph104.preheader ]
  %.171101 = phi ptr [ %53, %50 ], [ %45, %.lr.ph104.preheader ]
  %.173100 = phi ptr [ %54, %50 ], [ %.072.lcssa, %.lr.ph104.preheader ]
  %.17699 = phi i32 [ %52, %50 ], [ %spec.select, %.lr.ph104.preheader ]
  %47 = load i64, ptr %.173100, align 8
  %48 = load i64, ptr %.171101, align 8
  %.not90 = icmp eq i64 %47, %48
  br i1 %.not90, label %50, label %49

49:                                               ; preds = %.lr.ph104
  store i64 %48, ptr %.173100, align 8
  %.pre117 = load i32, ptr %14, align 8
  br label %50

50:                                               ; preds = %.lr.ph104, %49
  %51 = phi i32 [ %.pre117, %49 ], [ %46, %.lr.ph104 ]
  %.3 = phi i8 [ 1, %49 ], [ %.2102, %.lr.ph104 ]
  %52 = add nuw i32 %.17699, 1
  %53 = getelementptr inbounds i8, ptr %.171101, i64 8
  %54 = getelementptr inbounds i8, ptr %.173100, i64 8
  %55 = icmp ult i32 %52, %51
  br i1 %55, label %.lr.ph104, label %.loopexit, !llvm.loop !54

56:                                               ; preds = %._crit_edge
  br i1 %35, label %.lr.ph111.preheader, label %.loopexit

.lr.ph111.preheader:                              ; preds = %56
  %57 = getelementptr inbounds i8, ptr %14, i64 16
  %58 = load ptr, ptr %57, align 8
  %59 = zext i32 %spec.select to i64
  %60 = getelementptr inbounds %struct.FT_Var_Axis_, ptr %58, i64 %59
  br label %.lr.ph111

.lr.ph111:                                        ; preds = %.lr.ph111.preheader, %66
  %61 = phi i32 [ %67, %66 ], [ %34, %.lr.ph111.preheader ]
  %.0109 = phi ptr [ %69, %66 ], [ %60, %.lr.ph111.preheader ]
  %.4108 = phi i8 [ %.5, %66 ], [ %.068.lcssa, %.lr.ph111.preheader ]
  %.274107 = phi ptr [ %70, %66 ], [ %.072.lcssa, %.lr.ph111.preheader ]
  %.277106 = phi i32 [ %68, %66 ], [ %spec.select, %.lr.ph111.preheader ]
  %62 = load i64, ptr %.274107, align 8
  %63 = getelementptr inbounds i8, ptr %.0109, i64 16
  %64 = load i64, ptr %63, align 8
  %.not87 = icmp eq i64 %62, %64
  br i1 %.not87, label %66, label %65

65:                                               ; preds = %.lr.ph111
  store i64 %64, ptr %.274107, align 8
  %.pre118 = load i32, ptr %14, align 8
  br label %66

66:                                               ; preds = %.lr.ph111, %65
  %67 = phi i32 [ %.pre118, %65 ], [ %61, %.lr.ph111 ]
  %.5 = phi i8 [ 1, %65 ], [ %.4108, %.lr.ph111 ]
  %68 = add nuw i32 %.277106, 1
  %69 = getelementptr inbounds i8, ptr %.0109, i64 48
  %70 = getelementptr inbounds i8, ptr %.274107, i64 8
  %71 = icmp ult i32 %68, %67
  br i1 %71, label %.lr.ph111, label %.loopexit, !llvm.loop !55

.loopexit:                                        ; preds = %50, %66, %36, %56
  %72 = phi i32 [ %34, %56 ], [ %34, %36 ], [ %67, %66 ], [ %51, %50 ]
  %.6 = phi i8 [ %.068.lcssa, %56 ], [ %.068.lcssa, %36 ], [ %.5, %66 ], [ %.3, %50 ]
  %73 = getelementptr inbounds i8, ptr %12, i64 16
  %74 = load ptr, ptr %73, align 8
  %75 = icmp eq ptr %74, null
  %76 = icmp ne i8 %.6, 0
  %or.cond = select i1 %75, i1 true, i1 %76
  br i1 %or.cond, label %77, label %92

77:                                               ; preds = %.loopexit
  %78 = zext i32 %72 to i64
  %79 = call ptr @ft_mem_realloc(ptr noundef %6, i64 noundef 8, i64 noundef 0, i64 noundef %78, ptr noundef null, ptr noundef nonnull %4) #22
  %80 = load i32, ptr %4, align 4
  %.not88 = icmp eq i32 %80, 0
  br i1 %.not88, label %81, label %90

81:                                               ; preds = %77
  %82 = load ptr, ptr %7, align 8
  %83 = getelementptr inbounds i8, ptr %82, i64 48
  %84 = load i8, ptr %83, align 8
  %.not89 = icmp eq i8 %84, 0
  br i1 %.not89, label %85, label %86

85:                                               ; preds = %81
  call fastcc void @ft_var_load_avar(ptr noundef nonnull %0)
  br label %86

86:                                               ; preds = %85, %81
  %87 = load ptr, ptr %16, align 8
  call fastcc void @ft_var_to_normalized(ptr noundef nonnull %0, i32 noundef %spec.select, ptr noundef %87, ptr noundef %79)
  %88 = load i32, ptr %14, align 8
  %89 = call fastcc i32 @tt_set_mm_blend(ptr noundef nonnull %0, i32 noundef %88, ptr noundef %79, i8 noundef zeroext 0)
  store i32 %89, ptr %4, align 4
  br label %90

90:                                               ; preds = %9, %18, %77, %86
  %.069 = phi ptr [ %79, %77 ], [ %79, %86 ], [ null, %18 ], [ null, %9 ]
  call void @ft_mem_free(ptr noundef %6, ptr noundef %.069) #22
  %91 = load i32, ptr %4, align 4
  br label %92

92:                                               ; preds = %.loopexit, %90
  %.066 = phi i32 [ %91, %90 ], [ -1, %.loopexit ]
  ret i32 %.066
}